; Function Attrs: nounwind sspstrong uwtable
define internal void @tpm_emulator_inst_finalize(ptr noundef %obj) #0 {
entry:
  %0 = alloca [4 x i8], align 16
  %res.i = alloca i32, align 4
  %call.i = tail call ptr @object_dynamic_cast_assert(ptr noundef %obj, ptr noundef nonnull @.str, ptr noundef nonnull @.str.2, i32 noundef 50, ptr noundef nonnull @__func__.TPM_EMULATOR) #12
  call void @llvm.lifetime.start.p0(i64 4, ptr nonnull %res.i)
  %options.i = getelementptr inbounds nuw i8, ptr %call.i, i64 88
  %1 = load ptr, ptr %options.i, align 8
  %2 = load ptr, ptr %1, align 8
  %tobool.not.i = icmp eq ptr %2, null
  br i1 %tobool.not.i, label %tpm_emulator_shutdown.exit, label %if.end.i

if.end.i:                                         ; preds = %entry
  %savedstack.i = tail call ptr @llvm.stacksave.p0()
  call void @llvm.lifetime.start.p0(i64 4, ptr nonnull %0)
  %ctrl_chr.i.i = getelementptr inbounds nuw i8, ptr %call.i, i64 96
  %mutex.i.i = getelementptr inbounds nuw i8, ptr %call.i, i64 192
  %3 = load atomic i64, ptr @qemu_mutex_lock_func monotonic, align 8
  %4 = inttoptr i64 %3 to ptr
  tail call void %4(ptr noundef nonnull %mutex.i.i, ptr noundef nonnull @.str.11, i32 noundef 122) #12
  store i32 50331648, ptr %0, align 16
  %call3.us52.i.i = call i32 @qemu_chr_fe_write_all(ptr noundef nonnull %ctrl_chr.i.i, ptr noundef nonnull %0, i32 noundef 4) #12
  %cmp.us53.i.i = icmp slt i32 %call3.us52.i.i, 1
  br i1 %cmp.us53.i.i, label %qemu_lockable_auto_unlock.exit.i.i.i.i, label %if.end.i.i

if.end.i.i:                                       ; preds = %if.end.i
  %call10.i.i = call i32 @qemu_chr_fe_read_all(ptr noundef nonnull %ctrl_chr.i.i, ptr noundef nonnull %res.i, i32 noundef 4) #12
  %cmp12.i.i = icmp slt i32 %call10.i.i, 1
  br i1 %cmp12.i.i, label %qemu_lockable_auto_unlock.exit.i.i.i.i, label %tpm_emulator_ctrlcmd.exit.i

qemu_lockable_auto_unlock.exit.i.i.i.i:           ; preds = %if.end.i.i, %if.end.i
  call void @qemu_mutex_unlock_impl(ptr noundef nonnull %mutex.i.i, ptr noundef nonnull @.str.11, i32 noundef 132) #12
  call void @llvm.lifetime.end.p0(i64 4, ptr nonnull %0)
  call void @llvm.stackrestore.p0(ptr %savedstack.i)
  %call2.i = tail call ptr @__errno_location() #14
  %5 = load i32, ptr %call2.i, align 4
  %call3.i = call ptr @strerror(i32 noundef %5) #12
  call void (ptr, ...) @error_report(ptr noundef nonnull @.str.65, ptr noundef %call3.i) #12
  br label %tpm_emulator_shutdown.exit

tpm_emulator_ctrlcmd.exit.i:                      ; preds = %if.end.i.i
  call void @qemu_mutex_unlock_impl(ptr noundef nonnull %mutex.i.i, ptr noundef nonnull @.str.11, i32 noundef 132) #12
  call void @llvm.lifetime.end.p0(i64 4, ptr nonnull %0)
  call void @llvm.stackrestore.p0(ptr %savedstack.i)
  %6 = load i32, ptr %res.i, align 4
  %cmp4.not.i = icmp eq i32 %6, 0
  br i1 %cmp4.not.i, label %tpm_emulator_shutdown.exit, label %if.then5.i

if.then5.i:                                       ; preds = %tpm_emulator_ctrlcmd.exit.i
  %7 = call noundef i32 @llvm.bswap.i32(i32 %6)
  br label %for.body.i.i

for.cond.i.i:                                     ; preds = %for.body.i.i
  %inc.i.i = add nuw nsw i64 %i.04.i.i, 1
  %exitcond.not.i.i = icmp eq i64 %inc.i.i, 13
  br i1 %exitcond.not.i.i, label %tpm_emulator_strerror.exit.i, label %for.body.i.i, !llvm.loop !5

for.body.i.i:                                     ; preds = %for.cond.i.i, %if.then5.i
  %i.04.i.i = phi i64 [ 0, %if.then5.i ], [ %inc.i.i, %for.cond.i.i ]
  %arrayidx.i.i = getelementptr [13 x %struct.tpm_error], ptr @tpm_errors, i64 0, i64 %i.04.i.i
  %8 = load i32, ptr %arrayidx.i.i, align 16
  %cmp2.i.i = icmp eq i32 %8, %7
  br i1 %cmp2.i.i, label %if.then.i.i, label %for.cond.i.i

if.then.i.i:                                      ; preds = %for.body.i.i
  %string.i.i = getelementptr inbounds nuw i8, ptr %arrayidx.i.i, i64 8
  %9 = load ptr, ptr %string.i.i, align 8
  br label %tpm_emulator_strerror.exit.i

tpm_emulator_strerror.exit.i:                     ; preds = %for.cond.i.i, %if.then.i.i
  %retval.0.i.i = phi ptr [ %9, %if.then.i.i ], [ @.str.12, %for.cond.i.i ]
  call void (ptr, ...) @error_report(ptr noundef nonnull @.str.66, i32 noundef %7, ptr noundef %retval.0.i.i) #12
  br label %tpm_emulator_shutdown.exit

tpm_emulator_shutdown.exit:                       ; preds = %entry, %qemu_lockable_auto_unlock.exit.i.i.i.i, %tpm_emulator_ctrlcmd.exit.i, %tpm_emulator_strerror.exit.i
  call void @llvm.lifetime.end.p0(i64 4, ptr nonnull %res.i)
  %data_ioc = getelementptr inbounds nuw i8, ptr %call.i, i64 152
  %10 = load ptr, ptr %data_ioc, align 8
  call void @object_unref(ptr noundef %10) #12
  %ctrl_chr = getelementptr inbounds nuw i8, ptr %call.i, i64 96
  call void @qemu_chr_fe_deinit(ptr noundef nonnull %ctrl_chr, i1 noundef zeroext false) #12
  %11 = load ptr, ptr %options.i, align 8
  call void @qapi_free_TPMEmulatorOptions(ptr noundef %11) #12
  %migration_blocker = getelementptr inbounds nuw i8, ptr %call.i, i64 184
  call void @migrate_del_blocker(ptr noundef nonnull %migration_blocker) #12
  %volatil = getelementptr inbounds nuw i8, ptr %call.i, i64 280
  call void @tpm_sized_buffer_reset(ptr noundef nonnull %volatil) #12
  %permanent = getelementptr inbounds nuw i8, ptr %call.i, i64 256
  call void @tpm_sized_buffer_reset(ptr noundef nonnull %permanent) #12
  %savestate = getelementptr inbounds nuw i8, ptr %call.i, i64 304
  call void @tpm_sized_buffer_reset(ptr noundef nonnull %savestate) #12
  %mutex = getelementptr inbounds nuw i8, ptr %call.i, i64 192
  call void @qemu_mutex_destroy(ptr noundef nonnull %mutex) #12
  %vmstate = getelementptr inbounds nuw i8, ptr %call.i, i64 328
  %12 = load ptr, ptr %vmstate, align 8
  call void @qemu_del_vm_change_state_handler(ptr noundef %12) #12
  call void @vmstate_unregister(ptr noundef null, ptr noundef nonnull @vmstate_tpm_emulator, ptr noundef %obj) #12
  ret void
}